; Function Attrs: mustprogress nofree nounwind willreturn memory(argmem: read) uwtable
define dso_local range(i32 0, 2) i32 @pathIsBaseName(ptr noundef readonly %0) local_unnamed_addr #23 {
  %2 = tail call ptr @strchr(ptr noundef nonnull dereferenceable(1) %0, i32 noundef 47) #31
  %3 = icmp eq ptr %2, null
  br i1 %3, label %4, label %8

4:                                                ; preds = %1
  %5 = tail call ptr @strchr(ptr noundef nonnull dereferenceable(1) %0, i32 noundef 92) #31
  %6 = icmp eq ptr %5, null
  %7 = zext i1 %6 to i32
  br label %8

8:                                                ; preds = %4, %1
  %9 = phi i32 [ 0, %1 ], [ %7, %4 ]
  ret i32 %9
}